target datalayout = "e-m:e-p270:32:32-p271:32:32-p272:64:64-i64:64-i128:128-f80:128-n8:16:32:64-S128"
target triple = "x86_64-pc-linux-gnu"

@.str = private unnamed_addr constant [7 x i8] c"\\u%04x\00", align 1

; Function Attrs: mustprogress nounwind uwtable
define weak_odr hidden noundef ptr @_ZN4UTF84nextItEEPcPKcPT_(ptr noundef %0, ptr noundef %1) #1 comdat align 2 {
  %3 = alloca ptr, align 8
  %4 = alloca ptr, align 8
  %5 = alloca ptr, align 8
  %6 = alloca ptr, align 8
  %7 = alloca i8, align 1
  %8 = alloca i8, align 1
  %9 = alloca i8, align 1
  %10 = alloca i32, align 4
  %11 = alloca i16, align 2
  %12 = alloca i8, align 1
  %13 = alloca i8, align 1
  %14 = alloca i8, align 1
  %15 = alloca i8, align 1
  %16 = alloca i8, align 1
  store ptr %0, ptr %4, align 8
  store ptr %1, ptr %5, align 8
  %17 = load ptr, ptr %4, align 8
  store ptr %17, ptr %6, align 8
  store i32 -1, ptr %10, align 4
  %18 = load ptr, ptr %6, align 8
  %19 = getelementptr inbounds i8, ptr %18, i64 0
  %20 = load i8, ptr %19, align 1
  store i8 %20, ptr %7, align 1
  %21 = zext i8 %20 to i32
  %22 = ashr i32 %21, 4
  switch i32 %22, label %23 [
    i32 8, label %26
    i32 9, label %26
    i32 10, label %26
    i32 11, label %26
    i32 15, label %26
    i32 12, label %27
    i32 13, label %27
    i32 14, label %51
  ]

23:                                               ; preds = %2
  %24 = load i8, ptr %7, align 1
  %25 = zext i8 %24 to i16
  store i16 %25, ptr %11, align 2
  store i32 1, ptr %10, align 4
  br label %91

26:                                               ; preds = %2, %2, %2, %2, %2
  br label %91

27:                                               ; preds = %2, %2
  %28 = load ptr, ptr %6, align 8
  %29 = getelementptr inbounds i8, ptr %28, i64 1
  %30 = load i8, ptr %29, align 1
  store i8 %30, ptr %8, align 1
  %31 = zext i8 %30 to i32
  %32 = and i32 %31, 192
  %33 = icmp eq i32 %32, 128
  br i1 %33, label %34, label %50

34:                                               ; preds = %27
  %35 = load i8, ptr %7, align 1
  %36 = zext i8 %35 to i32
  %37 = and i32 %36, 31
  %38 = trunc i32 %37 to i8
  store i8 %38, ptr %12, align 1
  %39 = load i8, ptr %8, align 1
  %40 = zext i8 %39 to i32
  %41 = and i32 %40, 63
  %42 = trunc i32 %41 to i8
  store i8 %42, ptr %13, align 1
  %43 = load i8, ptr %12, align 1
  %44 = zext i8 %43 to i32
  %45 = shl i32 %44, 6
  %46 = load i8, ptr %13, align 1
  %47 = zext i8 %46 to i32
  %48 = add nsw i32 %45, %47
  %49 = trunc i32 %48 to i16
  store i16 %49, ptr %11, align 2
  store i32 2, ptr %10, align 4
  br label %91

50:                                               ; preds = %27
  br label %91

51:                                               ; preds = %2
  %52 = load ptr, ptr %6, align 8
  %53 = getelementptr inbounds i8, ptr %52, i64 1
  %54 = load i8, ptr %53, align 1
  store i8 %54, ptr %8, align 1
  %55 = zext i8 %54 to i32
  %56 = and i32 %55, 192
  %57 = icmp eq i32 %56, 128
  br i1 %57, label %58, label %90

58:                                               ; preds = %51
  %59 = load ptr, ptr %6, align 8
  %60 = getelementptr inbounds i8, ptr %59, i64 2
  %61 = load i8, ptr %60, align 1
  store i8 %61, ptr %9, align 1
  %62 = zext i8 %61 to i32
  %63 = and i32 %62, 192
  %64 = icmp eq i32 %63, 128
  br i1 %64, label %65, label %89

65:                                               ; preds = %58
  %66 = load i8, ptr %7, align 1
  %67 = zext i8 %66 to i32
  %68 = and i32 %67, 15
  %69 = trunc i32 %68 to i8
  store i8 %69, ptr %14, align 1
  %70 = load i8, ptr %8, align 1
  %71 = zext i8 %70 to i32
  %72 = and i32 %71, 63
  %73 = trunc i32 %72 to i8
  store i8 %73, ptr %15, align 1
  %74 = load i8, ptr %9, align 1
  %75 = zext i8 %74 to i32
  %76 = and i32 %75, 63
  %77 = trunc i32 %76 to i8
  store i8 %77, ptr %16, align 1
  %78 = load i8, ptr %14, align 1
  %79 = zext i8 %78 to i32
  %80 = shl i32 %79, 6
  %81 = load i8, ptr %15, align 1
  %82 = zext i8 %81 to i32
  %83 = add nsw i32 %80, %82
  %84 = shl i32 %83, 6
  %85 = load i8, ptr %16, align 1
  %86 = zext i8 %85 to i32
  %87 = add nsw i32 %84, %86
  %88 = trunc i32 %87 to i16
  store i16 %88, ptr %11, align 2
  store i32 3, ptr %10, align 4
  br label %89

89:                                               ; preds = %65, %58
  br label %90

90:                                               ; preds = %89, %51
  br label %91

91:                                               ; preds = %90, %50, %34, %26, %23
  %92 = load i32, ptr %10, align 4
  %93 = icmp sle i32 %92, 0
  br i1 %93, label %94, label %102

94:                                               ; preds = %91
  %95 = load ptr, ptr %6, align 8
  %96 = getelementptr inbounds i8, ptr %95, i64 0
  %97 = load i8, ptr %96, align 1
  %98 = zext i8 %97 to i16
  %99 = load ptr, ptr %5, align 8
  store i16 %98, ptr %99, align 2
  %100 = load ptr, ptr %6, align 8
  %101 = getelementptr inbounds i8, ptr %100, i64 1
  store ptr %101, ptr %3, align 8
  br label %109

102:                                              ; preds = %91
  %103 = load i16, ptr %11, align 2
  %104 = load ptr, ptr %5, align 8
  store i16 %103, ptr %104, align 2
  %105 = load ptr, ptr %6, align 8
  %106 = load i32, ptr %10, align 4
  %107 = sext i32 %106 to i64
  %108 = getelementptr inbounds i8, ptr %105, i64 %107
  store ptr %108, ptr %3, align 8
  br label %109

109:                                              ; preds = %102, %94
  %110 = load ptr, ptr %3, align 8
  ret ptr %110
}

; Function Attrs: mustprogress nounwind uwtable
define hidden void @_ZN4UTF815as_quoted_asciiEPKciPci(ptr noundef %0, i32 noundef %1, ptr noundef %2, i32 noundef %3) #1 align 2 {
  %5 = alloca ptr, align 8
  %6 = alloca i32, align 4
  %7 = alloca ptr, align 8
  %8 = alloca i32, align 4
  %9 = alloca ptr, align 8
  %10 = alloca ptr, align 8
  %11 = alloca ptr, align 8
  %12 = alloca ptr, align 8
  %13 = alloca i16, align 2
  store ptr %0, ptr %5, align 8
  store i32 %1, ptr %6, align 4
  store ptr %2, ptr %7, align 8
  store i32 %3, ptr %8, align 4
  %14 = load ptr, ptr %5, align 8
  store ptr %14, ptr %9, align 8
  %15 = load ptr, ptr %9, align 8
  %16 = load i32, ptr %6, align 4
  %17 = sext i32 %16 to i64
  %18 = getelementptr inbounds i8, ptr %15, i64 %17
  store ptr %18, ptr %10, align 8
  %19 = load ptr, ptr %7, align 8
  store ptr %19, ptr %11, align 8
  %20 = load ptr, ptr %7, align 8
  %21 = load i32, ptr %8, align 4
  %22 = sext i32 %21 to i64
  %23 = getelementptr inbounds i8, ptr %20, i64 %22
  store ptr %23, ptr %12, align 8
  br label %24

24:                                               ; preds = %62, %4
  %25 = load ptr, ptr %9, align 8
  %26 = load ptr, ptr %10, align 8
  %27 = icmp ult ptr %25, %26
  br i1 %27, label %28, label %63

28:                                               ; preds = %24
  %29 = load ptr, ptr %9, align 8
  %30 = call noundef ptr @_ZN4UTF84nextItEEPcPKcPT_(ptr noundef %29, ptr noundef %13)
  store ptr %30, ptr %9, align 8
  %31 = load i16, ptr %13, align 2
  %32 = zext i16 %31 to i32
  %33 = icmp sge i32 %32, 32
  br i1 %33, label %34, label %49

34:                                               ; preds = %28
  %35 = load i16, ptr %13, align 2
  %36 = zext i16 %35 to i32
  %37 = icmp slt i32 %36, 127
  br i1 %37, label %38, label %49

38:                                               ; preds = %34
  %39 = load ptr, ptr %11, align 8
  %40 = getelementptr inbounds i8, ptr %39, i64 1
  %41 = load ptr, ptr %12, align 8
  %42 = icmp uge ptr %40, %41
  br i1 %42, label %43, label %44

43:                                               ; preds = %38
  br label %63

44:                                               ; preds = %38
  %45 = load i16, ptr %13, align 2
  %46 = trunc i16 %45 to i8
  %47 = load ptr, ptr %11, align 8
  %48 = getelementptr inbounds i8, ptr %47, i32 1
  store ptr %48, ptr %11, align 8
  store i8 %46, ptr %47, align 1
  br label %62

49:                                               ; preds = %34, %28
  %50 = load ptr, ptr %11, align 8
  %51 = getelementptr inbounds i8, ptr %50, i64 6
  %52 = load ptr, ptr %12, align 8
  %53 = icmp uge ptr %51, %52
  br i1 %53, label %54, label %55

54:                                               ; preds = %49
  br label %63

55:                                               ; preds = %49
  %56 = load ptr, ptr %11, align 8
  %57 = load i16, ptr %13, align 2
  %58 = zext i16 %57 to i32
  %59 = call noundef i32 (ptr, i64, ptr, ...) @_ZN2os16snprintf_checkedEPcmPKcz(ptr noundef %56, i64 noundef 7, ptr noundef @.str, i32 noundef %58)
  %60 = load ptr, ptr %11, align 8
  %61 = getelementptr inbounds i8, ptr %60, i64 6
  store ptr %61, ptr %11, align 8
  br label %62

62:                                               ; preds = %55, %44
  br label %24, !llvm.loop !14

63:                                               ; preds = %54, %43, %24
  %64 = load ptr, ptr %11, align 8
  store i8 0, ptr %64, align 1
  ret void
}