; Function Attrs: mustprogress nounwind uwtable
define hidden void @_ZN4UTF815as_quoted_asciiEPKciPci(ptr noundef readonly %0, i32 noundef %1, ptr noundef %2, i32 noundef %3) local_unnamed_addr #2 align 2 {
  %5 = sext i32 %1 to i64
  %6 = getelementptr inbounds i8, ptr %0, i64 %5
  %7 = sext i32 %3 to i64
  %8 = getelementptr inbounds i8, ptr %2, i64 %7
  %9 = icmp sgt i32 %1, 0
  br i1 %9, label %.lr.ph, label %._crit_edge

.lr.ph:                                           ; preds = %4, %59
  %.023 = phi ptr [ %48, %59 ], [ %0, %4 ]
  %.01822 = phi ptr [ %.1, %59 ], [ %2, %4 ]
  %10 = load i8, ptr %.023, align 1
  %11 = lshr i8 %10, 4
  switch i8 %11, label %12 [
    i8 8, label %46
    i8 9, label %46
    i8 10, label %46
    i8 11, label %46
    i8 15, label %46
    i8 12, label %14
    i8 13, label %14
    i8 14, label %26
  ]

12:                                               ; preds = %.lr.ph
  %13 = zext i8 %10 to i16
  br label %_ZN4UTF84nextItEEPcPKcPT_.exit

14:                                               ; preds = %.lr.ph, %.lr.ph
  %15 = getelementptr inbounds i8, ptr %.023, i64 1
  %16 = load i8, ptr %15, align 1
  %17 = and i8 %16, -64
  %18 = icmp eq i8 %17, -128
  br i1 %18, label %19, label %46

19:                                               ; preds = %14
  %20 = and i8 %10, 31
  %21 = and i8 %16, 63
  %22 = zext nneg i8 %20 to i16
  %23 = shl nuw nsw i16 %22, 6
  %24 = zext nneg i8 %21 to i16
  %25 = or disjoint i16 %23, %24
  br label %_ZN4UTF84nextItEEPcPKcPT_.exit

26:                                               ; preds = %.lr.ph
  %27 = getelementptr inbounds i8, ptr %.023, i64 1
  %28 = load i8, ptr %27, align 1
  %29 = and i8 %28, -64
  %30 = icmp eq i8 %29, -128
  br i1 %30, label %31, label %46

31:                                               ; preds = %26
  %32 = getelementptr inbounds i8, ptr %.023, i64 2
  %33 = load i8, ptr %32, align 1
  %34 = and i8 %33, -64
  %35 = icmp eq i8 %34, -128
  br i1 %35, label %36, label %46

36:                                               ; preds = %31
  %37 = and i8 %28, 63
  %38 = and i8 %33, 63
  %39 = zext i8 %10 to i16
  %40 = zext nneg i8 %37 to i16
  %41 = shl i16 %39, 12
  %42 = shl nuw nsw i16 %40, 6
  %43 = or disjoint i16 %42, %41
  %44 = zext nneg i8 %38 to i16
  %45 = or disjoint i16 %43, %44
  br label %_ZN4UTF84nextItEEPcPKcPT_.exit

46:                                               ; preds = %31, %26, %14, %.lr.ph, %.lr.ph, %.lr.ph, %.lr.ph, %.lr.ph
  %47 = zext i8 %10 to i16
  br label %_ZN4UTF84nextItEEPcPKcPT_.exit

_ZN4UTF84nextItEEPcPKcPT_.exit:                   ; preds = %12, %19, %36, %46
  %.025.sink.i = phi i16 [ %47, %46 ], [ %13, %12 ], [ %45, %36 ], [ %25, %19 ]
  %.024.sink.i = phi i64 [ 1, %46 ], [ 1, %12 ], [ 3, %36 ], [ 2, %19 ]
  %48 = getelementptr inbounds i8, ptr %.023, i64 %.024.sink.i
  %49 = zext i16 %.025.sink.i to i32
  %50 = add i16 %.025.sink.i, -32
  %or.cond = icmp ult i16 %50, 95
  br i1 %or.cond, label %51, label %55

51:                                               ; preds = %_ZN4UTF84nextItEEPcPKcPT_.exit
  %52 = getelementptr inbounds i8, ptr %.01822, i64 1
  %.not21 = icmp ult ptr %52, %8
  br i1 %.not21, label %53, label %._crit_edge

53:                                               ; preds = %51
  %54 = trunc nuw i16 %.025.sink.i to i8
  store i8 %54, ptr %.01822, align 1
  br label %59

55:                                               ; preds = %_ZN4UTF84nextItEEPcPKcPT_.exit
  %56 = getelementptr inbounds i8, ptr %.01822, i64 6
  %.not = icmp ult ptr %56, %8
  br i1 %.not, label %57, label %._crit_edge

57:                                               ; preds = %55
  %58 = tail call noundef i32 (ptr, i64, ptr, ...) @_ZN2os16snprintf_checkedEPcmPKcz(ptr noundef %.01822, i64 noundef 7, ptr noundef nonnull @.str, i32 noundef %49) #9
  br label %59

59:                                               ; preds = %57, %53
  %.1 = phi ptr [ %52, %53 ], [ %56, %57 ]
  %60 = icmp ult ptr %48, %6
  br i1 %60, label %.lr.ph, label %._crit_edge, !llvm.loop !14

._crit_edge:                                      ; preds = %59, %51, %55, %4
  %.018.lcssa = phi ptr [ %2, %4 ], [ %.01822, %55 ], [ %.01822, %51 ], [ %.1, %59 ]
  store i8 0, ptr %.018.lcssa, align 1
  ret void
}